; Function Attrs: mustprogress nounwind uwtable
define hidden void @_ZN5clang7targets9DefineStdERNS_12MacroBuilderEN4llvm9StringRefERKNS_11LangOptionsE(ptr noundef nonnull align 8 dereferenceable(8) %0, ptr %1, i64 %2, ptr nocapture noundef nonnull readonly align 8 dereferenceable(841) %3) local_unnamed_addr #0 {
  %5 = alloca %"class.llvm::Twine", align 8
  %6 = alloca %"class.llvm::Twine", align 8
  %7 = alloca %"class.llvm::Twine", align 8
  %8 = alloca %"class.llvm::Twine", align 8
  %9 = alloca %"class.llvm::Twine", align 8
  %10 = alloca %"class.llvm::Twine", align 8
  %11 = alloca %"class.llvm::Twine", align 8
  %12 = load i64, ptr %3, align 8
  %13 = and i64 %12, 17179869184
  %.not = icmp eq i64 %13, 0
  br i1 %.not, label %_ZN4llvmplERKNS_5TwineES2_.exit, label %14

14:                                               ; preds = %4
  %15 = getelementptr inbounds nuw i8, ptr %5, i64 32
  store i8 5, ptr %15, align 8
  %16 = getelementptr inbounds nuw i8, ptr %5, i64 33
  store i8 1, ptr %16, align 1
  store ptr %1, ptr %5, align 8
  %17 = getelementptr inbounds nuw i8, ptr %5, i64 8
  store i64 %2, ptr %17, align 8
  %18 = getelementptr inbounds nuw i8, ptr %6, i64 32
  %19 = getelementptr inbounds nuw i8, ptr %6, i64 33
  store i8 1, ptr %19, align 1
  store ptr @.str, ptr %6, align 8
  store i8 3, ptr %18, align 8
  call void @_ZN5clang12MacroBuilder11defineMacroERKN4llvm5TwineES4_(ptr noundef nonnull align 8 dereferenceable(8) %0, ptr noundef nonnull align 8 dereferenceable(34) %5, ptr noundef nonnull align 8 dereferenceable(34) %6)
  br label %_ZN4llvmplERKNS_5TwineES2_.exit

_ZN4llvmplERKNS_5TwineES2_.exit:                  ; preds = %4, %14
  %20 = getelementptr inbounds nuw i8, ptr %7, i64 32
  store i8 3, ptr %20, align 8, !alias.scope !4
  %21 = getelementptr inbounds nuw i8, ptr %7, i64 33
  store i8 5, ptr %21, align 1, !alias.scope !4
  store ptr @.str.1, ptr %7, align 8, !alias.scope !4
  %22 = getelementptr inbounds nuw i8, ptr %7, i64 16
  store ptr %1, ptr %22, align 8, !alias.scope !4
  %23 = getelementptr inbounds i8, ptr %7, i64 24
  store i64 %2, ptr %23, align 8, !alias.scope !4
  %24 = getelementptr inbounds nuw i8, ptr %8, i64 32
  %25 = getelementptr inbounds nuw i8, ptr %8, i64 33
  store i8 1, ptr %25, align 1
  store ptr @.str, ptr %8, align 8
  store i8 3, ptr %24, align 8
  call void @_ZN5clang12MacroBuilder11defineMacroERKN4llvm5TwineES4_(ptr noundef nonnull align 8 dereferenceable(8) %0, ptr noundef nonnull align 8 dereferenceable(34) %7, ptr noundef nonnull align 8 dereferenceable(34) %8)
  %26 = getelementptr inbounds nuw i8, ptr %10, i64 32
  store i8 3, ptr %26, align 8, !alias.scope !7
  %27 = getelementptr inbounds nuw i8, ptr %10, i64 33
  store i8 5, ptr %27, align 1, !alias.scope !7
  store ptr @.str.1, ptr %10, align 8, !alias.scope !7
  %28 = getelementptr inbounds nuw i8, ptr %10, i64 16
  store ptr %1, ptr %28, align 8, !alias.scope !7
  %29 = getelementptr inbounds i8, ptr %10, i64 24
  store i64 %2, ptr %29, align 8, !alias.scope !7
  store ptr %10, ptr %9, align 8, !alias.scope !10
  %30 = getelementptr inbounds nuw i8, ptr %9, i64 16
  store ptr @.str.1, ptr %30, align 8, !alias.scope !10
  %31 = getelementptr inbounds nuw i8, ptr %9, i64 32
  store i8 2, ptr %31, align 8, !alias.scope !10
  %32 = getelementptr inbounds nuw i8, ptr %9, i64 33
  store i8 3, ptr %32, align 1, !alias.scope !10
  %33 = getelementptr inbounds nuw i8, ptr %11, i64 32
  %34 = getelementptr inbounds nuw i8, ptr %11, i64 33
  store i8 1, ptr %34, align 1
  store ptr @.str, ptr %11, align 8
  store i8 3, ptr %33, align 8
  call void @_ZN5clang12MacroBuilder11defineMacroERKN4llvm5TwineES4_(ptr noundef nonnull align 8 dereferenceable(8) %0, ptr noundef nonnull align 8 dereferenceable(34) %9, ptr noundef nonnull align 8 dereferenceable(34) %11)
  ret void
}